; Function Attrs: inlinehint mustprogress nounwind uwtable
define internal fastcc void @_ZN12_GLOBAL__N_18MemIndexD2Ev(ptr noundef nonnull align 8 dereferenceable(168) %0) unnamed_addr #4 align 2 personality ptr @__gxx_personality_v0 {
  %2 = getelementptr inbounds nuw i8, ptr %0, i64 112
  %3 = getelementptr inbounds nuw i8, ptr %0, i64 136
  tail call void @_ZNSt6vectorIN5Yosys7hashlib4dictINS0_5RTLIL8IdStringENS1_4poolIPNS3_4CellENS1_8hash_opsIS7_EEEENS8_IS4_EEE7entry_tESaISD_EED2Ev(ptr noundef nonnull align 8 dereferenceable(24) %3) #32
  %4 = load ptr, ptr %2, align 8, !tbaa !49
  %.not.i.i.i.i = icmp eq ptr %4, null
  br i1 %.not.i.i.i.i, label %_ZN5Yosys7hashlib4dictINS_5RTLIL8IdStringENS0_4poolIPNS2_4CellENS0_8hash_opsIS6_EEEENS7_IS3_EEED2Ev.exit, label %5

5:                                                ; preds = %1
  %6 = getelementptr inbounds nuw i8, ptr %0, i64 128
  %7 = load ptr, ptr %6, align 8, !tbaa !89
  %8 = ptrtoint ptr %7 to i64
  %9 = ptrtoint ptr %4 to i64
  %10 = sub i64 %8, %9
  tail call void @_ZdlPvm(ptr noundef nonnull %4, i64 noundef %10) #34
  br label %_ZN5Yosys7hashlib4dictINS_5RTLIL8IdStringENS0_4poolIPNS2_4CellENS0_8hash_opsIS6_EEEENS7_IS3_EEED2Ev.exit

_ZN5Yosys7hashlib4dictINS_5RTLIL8IdStringENS0_4poolIPNS2_4CellENS0_8hash_opsIS6_EEEENS7_IS3_EEED2Ev.exit: ; preds = %1, %5
  %11 = getelementptr inbounds nuw i8, ptr %0, i64 56
  %12 = getelementptr inbounds nuw i8, ptr %0, i64 80
  tail call void @_ZNSt6vectorIN5Yosys7hashlib4dictINS0_5RTLIL8IdStringENS1_4poolIPNS3_4CellENS1_8hash_opsIS7_EEEENS8_IS4_EEE7entry_tESaISD_EED2Ev(ptr noundef nonnull align 8 dereferenceable(24) %12) #32
  %13 = load ptr, ptr %11, align 8, !tbaa !49
  %.not.i.i.i.i1 = icmp eq ptr %13, null
  br i1 %.not.i.i.i.i1, label %_ZN5Yosys7hashlib4dictINS_5RTLIL8IdStringENS0_4poolIPNS2_4CellENS0_8hash_opsIS6_EEEENS7_IS3_EEED2Ev.exit2, label %14

14:                                               ; preds = %_ZN5Yosys7hashlib4dictINS_5RTLIL8IdStringENS0_4poolIPNS2_4CellENS0_8hash_opsIS6_EEEENS7_IS3_EEED2Ev.exit
  %15 = getelementptr inbounds nuw i8, ptr %0, i64 72
  %16 = load ptr, ptr %15, align 8, !tbaa !89
  %17 = ptrtoint ptr %16 to i64
  %18 = ptrtoint ptr %13 to i64
  %19 = sub i64 %17, %18
  tail call void @_ZdlPvm(ptr noundef nonnull %13, i64 noundef %19) #34
  br label %_ZN5Yosys7hashlib4dictINS_5RTLIL8IdStringENS0_4poolIPNS2_4CellENS0_8hash_opsIS6_EEEENS7_IS3_EEED2Ev.exit2

_ZN5Yosys7hashlib4dictINS_5RTLIL8IdStringENS0_4poolIPNS2_4CellENS0_8hash_opsIS6_EEEENS7_IS3_EEED2Ev.exit2: ; preds = %_ZN5Yosys7hashlib4dictINS_5RTLIL8IdStringENS0_4poolIPNS2_4CellENS0_8hash_opsIS6_EEEENS7_IS3_EEED2Ev.exit, %14
  %20 = getelementptr inbounds nuw i8, ptr %0, i64 24
  tail call void @_ZNSt6vectorIN5Yosys7hashlib4dictINS0_5RTLIL8IdStringENS1_4poolIPNS3_4CellENS1_8hash_opsIS7_EEEENS8_IS4_EEE7entry_tESaISD_EED2Ev(ptr noundef nonnull align 8 dereferenceable(24) %20) #32
  %21 = load ptr, ptr %0, align 8, !tbaa !49
  %.not.i.i.i.i3 = icmp eq ptr %21, null
  br i1 %.not.i.i.i.i3, label %_ZN5Yosys7hashlib4dictINS_5RTLIL8IdStringENS0_4poolIPNS2_4CellENS0_8hash_opsIS6_EEEENS7_IS3_EEED2Ev.exit4, label %22

22:                                               ; preds = %_ZN5Yosys7hashlib4dictINS_5RTLIL8IdStringENS0_4poolIPNS2_4CellENS0_8hash_opsIS6_EEEENS7_IS3_EEED2Ev.exit2
  %23 = getelementptr inbounds nuw i8, ptr %0, i64 16
  %24 = load ptr, ptr %23, align 8, !tbaa !89
  %25 = ptrtoint ptr %24 to i64
  %26 = ptrtoint ptr %21 to i64
  %27 = sub i64 %25, %26
  tail call void @_ZdlPvm(ptr noundef nonnull %21, i64 noundef %27) #34
  br label %_ZN5Yosys7hashlib4dictINS_5RTLIL8IdStringENS0_4poolIPNS2_4CellENS0_8hash_opsIS6_EEEENS7_IS3_EEED2Ev.exit4

_ZN5Yosys7hashlib4dictINS_5RTLIL8IdStringENS0_4poolIPNS2_4CellENS0_8hash_opsIS6_EEEENS7_IS3_EEED2Ev.exit4: ; preds = %_ZN5Yosys7hashlib4dictINS_5RTLIL8IdStringENS0_4poolIPNS2_4CellENS0_8hash_opsIS6_EEEENS7_IS3_EEED2Ev.exit2, %22
  ret void
}